Certificate:
    Data:
        Version: 3 (0x2)
        Serial Number: 15752976295284113573 (0xda9dd07a4b8f00a5)
    Signature Algorithm: sha1WithRSAEncryption
        Issuer: C=US, ST=Some-State, O=WebID, CN=WebID
        Validity
            Not Before: Nov 29 20:26:19 2012 GMT
            Not After : Nov 29 20:26:19 2015 GMT
        Subject: C=US, ST=Some-State, O=WebID, CN=WebID
        Subject Public Key Info:
            Public Key Algorithm: rsaEncryption
                Public-Key: (1024 bit)
                Modulus:
                    00:b6:1a:7d:23:e4:28:89:f9:43:99:0a:5d:07:62:
                    de:a5:c7:01:8a:87:c3:b6:a1:cc:4e:53:79:6f:e0:
                    93:40:07:f7:dc:24:13:e8:32:1d:06:fc:dc:5b:15:
                    ac:93:e9:6e:88:10:5f:3b:d9:3c:6e:b4:2b:5c:f8:
                    d1:02:1c:c0:5f:84:84:91:17:ab:41:a6:73:3b:89:
                    bb:91:94:63:71:0a:3c:da:1f:e9:5e:fc:db:16:bb:
                    ff:a8:31:47:1e:60:8e:54:1d:66:cb:c2:3d:90:c1:
                    06:3b:86:2f:6c:30:a9:5a:10:ec:6c:24:a7:4e:6c:
                    68:6f:4b:1a:3a:0b:9b:4d:1d
                Exponent: 65537 (0x10001)
        X509v3 extensions:
            X509v3 Subject Key Identifier: 
                3D:E8:86:C0:1D:37:62:B6:4B:D6:8F:49:57:AE:98:ED:F8:9A:D4:82
            X509v3 Authority Key Identifier: 
                keyid:3D:E8:86:C0:1D:37:62:B6:4B:D6:8F:49:57:AE:98:ED:F8:9A:D4:82

            X509v3 Basic Constraints: 
                CA:TRUE
    Signature Algorithm: sha1WithRSAEncryption
         7f:15:29:f0:d8:cd:d3:13:17:ba:73:0c:68:19:b4:48:f5:03:
         3c:70:ae:54:c1:cd:c5:1d:4b:22:91:02:19:c8:fc:aa:fb:ae:
         69:c8:6c:3e:75:14:76:8d:fb:7b:7e:a6:ff:d8:f2:18:b6:ca:
         d0:8d:8e:55:5f:5b:e4:21:a2:94:6d:43:a0:04:5f:05:8e:7c:
         2c:61:5d:d9:a8:1e:4c:7d:84:73:f4:fb:f6:2a:74:f0:38:76:
         f7:2e:4f:38:3a:b6:32:25:8d:32:bf:86:8b:02:2a:80:a6:43:
         14:ba:6b:ba:1a:08:cc:e3:6d:40:5b:15:28:8a:26:cb:d8:d4:
         1d:fa
-----BEGIN CERTIFICATE-----
MIICUjCCAbugAwIBAgIJANqd0HpLjwClMA0GCSqGSIb3DQEBBQUAMEIxCzAJBgNV
BAYTAlVTMRMwEQYDVQQIDApTb21lLVN0YXRlMQ4wDAYDVQQKDAVXZWJJRDEOMAwG
A1UEAwwFV2ViSUQwHhcNMTIxMTI5MjAyNjE5WhcNMTUxMTI5MjAyNjE5WjBCMQsw
CQYDVQQGEwJVUzETMBEGA1UECAwKU29tZS1TdGF0ZTEOMAwGA1UECgwFV2ViSUQx
DjAMBgNVBAMMBVdlYklEMIGfMA0GCSqGSIb3DQEBAQUAA4GNADCBiQKBgQC2Gn0j
5CiJ+UOZCl0HYt6lxwGKh8O2ocxOU3lv4JNAB/fcJBPoMh0G/NxbFayT6W6IEF87
2TxutCtc+NECHMBfhISRF6tBpnM7ibuRlGNxCjzaH+le/NsWu/+oMUceYI5UHWbL
wj2QwQY7hi9sMKlaEOxsJKdObGhvSxo6C5tNHQIDAQABo1AwTjAdBgNVHQ4EFgQU
PeiGwB03YrZL1o9JV66Y7fia1IIwHwYDVR0jBBgwFoAUPeiGwB03YrZL1o9JV66Y
7fia1IIwDAYDVR0TBAUwAwEB/zANBgkqhkiG9w0BAQUFAAOBgQB/FSnw2M3TExe6
cwxoGbRI9QM8cK5Uwc3FHUsikQIZyPyq+65pyGw+dRR2jft7fqb/2PIYtsrQjY5V
X1vkIaKUbUOgBF8FjnwsYV3ZqB5MfYRz9Pv2KnTwOHb3Lk84OrYyJY0yv4aLAiqA
pkMUumu6GgjM421AWxUoiibL2NQd+g==
-----END CERTIFICATE-----
